target datalayout = "e-m:e-p270:32:32-p271:32:32-p272:64:64-i64:64-i128:128-f80:128-n8:16:32:64-S128"
target triple = "x86_64-pc-linux-gnu"

%struct.formnode = type { i16, i16, i16, i32, i32, i32, i32, i16, i16, i16, i32, ptr, ptr, ptr, ptr, ptr, ptr, ptr, ptr, ptr, ptr, ptr }

; Function Attrs: nounwind uwtable
define internal i32 @Previous_Page_Number(ptr noundef %0) #0 {
  %2 = alloca ptr, align 8
  store ptr %0, ptr %2, align 8, !tbaa !4
  %3 = load ptr, ptr %2, align 8, !tbaa !4
  %4 = getelementptr inbounds nuw %struct.formnode, ptr %3, i32 0, i32 9
  %5 = load i16, ptr %4, align 4, !tbaa !49
  %6 = sext i16 %5 to i32
  %7 = icmp ne i32 %6, 0
  br i1 %7, label %8, label %14

8:                                                ; preds = %1
  %9 = load ptr, ptr %2, align 8, !tbaa !4
  %10 = getelementptr inbounds nuw %struct.formnode, ptr %9, i32 0, i32 9
  %11 = load i16, ptr %10, align 4, !tbaa !49
  %12 = sext i16 %11 to i32
  %13 = sub nsw i32 %12, 1
  br label %20

14:                                               ; preds = %1
  %15 = load ptr, ptr %2, align 8, !tbaa !4
  %16 = getelementptr inbounds nuw %struct.formnode, ptr %15, i32 0, i32 8
  %17 = load i16, ptr %16, align 2, !tbaa !117
  %18 = sext i16 %17 to i32
  %19 = sub nsw i32 %18, 1
  br label %20

20:                                               ; preds = %14, %8
  %21 = phi i32 [ %13, %8 ], [ %19, %14 ]
  ret i32 %21
}

; Function Attrs: nounwind uwtable
define internal i32 @PN_Previous_Page(ptr noundef %0) #0 {
  %2 = alloca ptr, align 8
  store ptr %0, ptr %2, align 8, !tbaa !4
  %3 = load ptr, ptr %2, align 8, !tbaa !4
  %4 = load ptr, ptr %2, align 8, !tbaa !4
  %5 = call i32 @Previous_Page_Number(ptr noundef %4)
  %6 = call i32 @_nc_Set_Form_Page(ptr noundef %3, i32 noundef %5, ptr noundef null)
  ret i32 %6
}