; Function Attrs: nounwind uwtable
define internal range(i32 -11, 1) i32 @PN_Previous_Page(ptr noundef %0) #0 {
  %2 = getelementptr inbounds nuw i8, ptr %0, i64 28
  %3 = load i16, ptr %2, align 4, !tbaa !47
  %.not.i = icmp eq i16 %3, 0
  br i1 %.not.i, label %4, label %Previous_Page_Number.exit

4:                                                ; preds = %1
  %5 = getelementptr inbounds nuw i8, ptr %0, i64 26
  %6 = load i16, ptr %5, align 2, !tbaa !108
  br label %Previous_Page_Number.exit

Previous_Page_Number.exit:                        ; preds = %1, %4
  %.in.in.i = phi i16 [ %6, %4 ], [ %3, %1 ]
  %.in.i = sext i16 %.in.in.i to i32
  %7 = add nsw i32 %.in.i, -1
  %8 = tail call i32 @_nc_Set_Form_Page(ptr noundef nonnull %0, i32 noundef %7, ptr noundef null)
  ret i32 %8
}